; Function Attrs: mustprogress uwtable
define { i64, ptr } @_ZNK9grpc_core29StaticDataCertificateProvider4typeEv(ptr nonnull readnone align 8 captures(none) %0) unnamed_addr #3 align 2 personality ptr @__gxx_personality_v0 {
  %2 = load atomic i8, ptr @_ZGVZNK9grpc_core29StaticDataCertificateProvider4typeEvE8kFactory acquire, align 8
  %3 = icmp eq i8 %2, 0
  br i1 %3, label %4, label %8, !prof !43

4:                                                ; preds = %1
  %5 = tail call i32 @__cxa_guard_acquire(ptr nonnull @_ZGVZNK9grpc_core29StaticDataCertificateProvider4typeEvE8kFactory) #34
  %.not = icmp eq i32 %5, 0
  br i1 %.not, label %8, label %6

6:                                                ; preds = %4
  invoke void @_ZN9grpc_core14UniqueTypeName7FactoryC2ESt17basic_string_viewIcSt11char_traitsIcEE(ptr noundef nonnull align 8 dereferenceable(8) @_ZZNK9grpc_core29StaticDataCertificateProvider4typeEvE8kFactory, i64 10, ptr nonnull @.str)
          to label %7 unwind label %13

7:                                                ; preds = %6
  tail call void @__cxa_guard_release(ptr nonnull @_ZGVZNK9grpc_core29StaticDataCertificateProvider4typeEvE8kFactory) #34
  br label %8

8:                                                ; preds = %7, %4, %1
  %9 = load ptr, ptr @_ZZNK9grpc_core29StaticDataCertificateProvider4typeEvE8kFactory, align 8, !tbaa !44
  %10 = load ptr, ptr %9, align 8, !tbaa !28
  %11 = getelementptr inbounds nuw i8, ptr %9, i64 8
  %12 = load i64, ptr %11, align 8, !tbaa !30
  %.fca.0.insert.i.i = insertvalue { i64, ptr } poison, i64 %12, 0
  %.fca.1.insert.i.i = insertvalue { i64, ptr } %.fca.0.insert.i.i, ptr %10, 1
  ret { i64, ptr } %.fca.1.insert.i.i

13:                                               ; preds = %6
  %14 = landingpad { ptr, i32 }
          cleanup
  tail call void @__cxa_guard_abort(ptr nonnull @_ZGVZNK9grpc_core29StaticDataCertificateProvider4typeEvE8kFactory) #34
  resume { ptr, i32 } %14
}